target datalayout = "e-m:e-p270:32:32-p271:32:32-p272:64:64-i64:64-i128:128-f80:128-n8:16:32:64-S128"
target triple = "x86_64-unknown-linux-gnu"

%"class.std::vector.5" = type { %"struct.std::_Vector_base.6" }
%"struct.std::_Vector_base.6" = type { %"struct.std::_Vector_base<std::pair<unsigned long, unsigned long>, std::allocator<std::pair<unsigned long, unsigned long>>>::_Vector_impl" }
%"struct.std::_Vector_base<std::pair<unsigned long, unsigned long>, std::allocator<std::pair<unsigned long, unsigned long>>>::_Vector_impl" = type { %"struct.std::_Vector_base<std::pair<unsigned long, unsigned long>, std::allocator<std::pair<unsigned long, unsigned long>>>::_Vector_impl_data" }
%"struct.std::_Vector_base<std::pair<unsigned long, unsigned long>, std::allocator<std::pair<unsigned long, unsigned long>>>::_Vector_impl_data" = type { ptr, ptr, ptr }
%"class.QuantLib::SwapBasisSystem" = type { %"class.QuantLib::MarketModelBasisSystem", %"class.std::vector", %"class.std::vector", i64, %"class.std::vector.0", %"class.QuantLib::EvolutionDescription" }
%"class.QuantLib::MarketModelBasisSystem" = type { %"class.QuantLib::MarketModelNodeDataProvider" }
%"class.QuantLib::MarketModelNodeDataProvider" = type { ptr }
%"class.std::vector" = type { %"struct.std::_Vector_base" }
%"struct.std::_Vector_base" = type { %"struct.std::_Vector_base<double, std::allocator<double>>::_Vector_impl" }
%"struct.std::_Vector_base<double, std::allocator<double>>::_Vector_impl" = type { %"struct.std::_Vector_base<double, std::allocator<double>>::_Vector_impl_data" }
%"struct.std::_Vector_base<double, std::allocator<double>>::_Vector_impl_data" = type { ptr, ptr, ptr }
%"class.std::vector.0" = type { %"struct.std::_Vector_base.1" }
%"struct.std::_Vector_base.1" = type { %"struct.std::_Vector_base<unsigned long, std::allocator<unsigned long>>::_Vector_impl" }
%"struct.std::_Vector_base<unsigned long, std::allocator<unsigned long>>::_Vector_impl" = type { %"struct.std::_Vector_base<unsigned long, std::allocator<unsigned long>>::_Vector_impl_data" }
%"struct.std::_Vector_base<unsigned long, std::allocator<unsigned long>>::_Vector_impl_data" = type { ptr, ptr, ptr }
%"class.QuantLib::EvolutionDescription" = type { i64, %"class.std::vector", %"class.std::vector", %"class.std::vector.5", %"class.std::vector", %"class.std::vector.0" }
%"class.std::valarray" = type { i64, ptr }

; Function Attrs: inlinehint mustprogress nounwind uwtable
define linkonce_odr void @_ZNSt16_Array_init_ctorIbLb1EE8_S_do_itEPbS1_b(ptr noundef %__b, ptr noundef %__e, i1 noundef zeroext %__t) #1 comdat align 2 {
entry:
  %__b.addr = alloca ptr, align 8
  %__e.addr = alloca ptr, align 8
  %__t.addr = alloca i8, align 1
  store ptr %__b, ptr %__b.addr, align 8, !tbaa !3
  store ptr %__e, ptr %__e.addr, align 8, !tbaa !3
  %storedv = zext i1 %__t to i8
  store i8 %storedv, ptr %__t.addr, align 1, !tbaa !39
  br label %while.cond

while.cond:                                       ; preds = %while.body, %entry
  %0 = load ptr, ptr %__b.addr, align 8, !tbaa !3
  %1 = load ptr, ptr %__e.addr, align 8, !tbaa !3
  %cmp = icmp ne ptr %0, %1
  br i1 %cmp, label %while.body, label %while.end

while.body:                                       ; preds = %while.cond
  %2 = load i8, ptr %__t.addr, align 1, !tbaa !39, !range !44, !noundef !45
  %loadedv = trunc i8 %2 to i1
  %3 = load ptr, ptr %__b.addr, align 8, !tbaa !3
  %incdec.ptr = getelementptr inbounds nuw i8, ptr %3, i32 1
  store ptr %incdec.ptr, ptr %__b.addr, align 8, !tbaa !3
  %storedv1 = zext i1 %loadedv to i8
  store i8 %storedv1, ptr %3, align 1, !tbaa !39
  br label %while.cond, !llvm.loop !61

while.end:                                        ; preds = %while.cond
  ret void
}

; Function Attrs: inlinehint mustprogress uwtable
define linkonce_odr void @_ZSt25__valarray_fill_constructIbEvPT_S1_S0_(ptr noundef %__b, ptr noundef %__e, i1 noundef zeroext %__t) #6 comdat {
entry:
  %__b.addr = alloca ptr, align 8
  %__e.addr = alloca ptr, align 8
  %__t.addr = alloca i8, align 1
  store ptr %__b, ptr %__b.addr, align 8, !tbaa !3
  store ptr %__e, ptr %__e.addr, align 8, !tbaa !3
  %storedv = zext i1 %__t to i8
  store i8 %storedv, ptr %__t.addr, align 1, !tbaa !39
  %0 = load ptr, ptr %__b.addr, align 8, !tbaa !3
  %1 = load ptr, ptr %__e.addr, align 8, !tbaa !3
  %2 = load i8, ptr %__t.addr, align 1, !tbaa !39, !range !44, !noundef !45
  %loadedv = trunc i8 %2 to i1
  call void @_ZNSt16_Array_init_ctorIbLb1EE8_S_do_itEPbS1_b(ptr noundef %0, ptr noundef %1, i1 noundef zeroext %loadedv)
  ret void
}

; Function Attrs: inlinehint mustprogress uwtable
define linkonce_odr noalias noundef ptr @_ZSt22__valarray_get_storageIbEPT_m(i64 noundef %__n) #6 comdat {
entry:
  %__n.addr = alloca i64, align 8
  store i64 %__n, ptr %__n.addr, align 8, !tbaa !9
  %0 = load i64, ptr %__n.addr, align 8, !tbaa !9
  %mul = mul i64 %0, 1
  %call = call noalias noundef nonnull ptr @_Znwm(i64 noundef %mul) #19
  ret ptr %call
}

; Function Attrs: inlinehint mustprogress uwtable
define linkonce_odr void @_ZNSt8valarrayIbEC2ERKbm(ptr noundef nonnull align 8 dereferenceable(16) %this, ptr noundef nonnull align 1 dereferenceable(1) %__t, i64 noundef %__n) unnamed_addr #6 comdat align 2 {
entry:
  %this.addr = alloca ptr, align 8
  %__t.addr = alloca ptr, align 8
  %__n.addr = alloca i64, align 8
  store ptr %this, ptr %this.addr, align 8, !tbaa !3
  store ptr %__t, ptr %__t.addr, align 8, !tbaa !3
  store i64 %__n, ptr %__n.addr, align 8, !tbaa !9
  %this1 = load ptr, ptr %this.addr, align 8
  %_M_size = getelementptr inbounds nuw %"class.std::valarray", ptr %this1, i32 0, i32 0
  %0 = load i64, ptr %__n.addr, align 8, !tbaa !9
  store i64 %0, ptr %_M_size, align 8, !tbaa !41
  %_M_data = getelementptr inbounds nuw %"class.std::valarray", ptr %this1, i32 0, i32 1
  %1 = load i64, ptr %__n.addr, align 8, !tbaa !9
  %call = call noalias noundef ptr @_ZSt22__valarray_get_storageIbEPT_m(i64 noundef %1)
  store ptr %call, ptr %_M_data, align 8, !tbaa !43
  %_M_data2 = getelementptr inbounds nuw %"class.std::valarray", ptr %this1, i32 0, i32 1
  %2 = load ptr, ptr %_M_data2, align 8, !tbaa !43
  %_M_data3 = getelementptr inbounds nuw %"class.std::valarray", ptr %this1, i32 0, i32 1
  %3 = load ptr, ptr %_M_data3, align 8, !tbaa !43
  %4 = load i64, ptr %__n.addr, align 8, !tbaa !9
  %add.ptr = getelementptr inbounds nuw i8, ptr %3, i64 %4
  %5 = load ptr, ptr %__t.addr, align 8, !tbaa !3
  %6 = load i8, ptr %5, align 1, !tbaa !39, !range !44, !noundef !45
  %loadedv = trunc i8 %6 to i1
  call void @_ZSt25__valarray_fill_constructIbEvPT_S1_S0_(ptr noundef %2, ptr noundef %add.ptr, i1 noundef zeroext %loadedv)
  ret void
}

; Function Attrs: mustprogress nounwind uwtable
define linkonce_odr noundef i64 @_ZNKSt6vectorIdSaIdEE4sizeEv(ptr noundef nonnull align 8 dereferenceable(24) %this) #2 comdat align 2 {
entry:
  %this.addr = alloca ptr, align 8
  store ptr %this, ptr %this.addr, align 8, !tbaa !3
  %this1 = load ptr, ptr %this.addr, align 8
  %_M_impl = getelementptr inbounds nuw %"struct.std::_Vector_base", ptr %this1, i32 0, i32 0
  %_M_finish = getelementptr inbounds nuw %"struct.std::_Vector_base<double, std::allocator<double>>::_Vector_impl_data", ptr %_M_impl, i32 0, i32 1
  %0 = load ptr, ptr %_M_finish, align 8, !tbaa !18
  %_M_impl2 = getelementptr inbounds nuw %"struct.std::_Vector_base", ptr %this1, i32 0, i32 0
  %_M_start = getelementptr inbounds nuw %"struct.std::_Vector_base<double, std::allocator<double>>::_Vector_impl_data", ptr %_M_impl2, i32 0, i32 0
  %1 = load ptr, ptr %_M_start, align 8, !tbaa !16
  %sub.ptr.lhs.cast = ptrtoint ptr %0 to i64
  %sub.ptr.rhs.cast = ptrtoint ptr %1 to i64
  %sub.ptr.sub = sub i64 %sub.ptr.lhs.cast, %sub.ptr.rhs.cast
  %sub.ptr.div = sdiv exact i64 %sub.ptr.sub, 8
  ret i64 %sub.ptr.div
}

; Function Attrs: mustprogress uwtable
define void @_ZNK8QuantLib15SwapBasisSystem14isExerciseTimeEv(ptr dead_on_unwind noalias writable sret(%"class.std::valarray") align 8 %agg.result, ptr noundef nonnull align 8 dereferenceable(216) %this) unnamed_addr #0 align 2 {
entry:
  %result.ptr = alloca ptr, align 8
  %this.addr = alloca ptr, align 8
  %ref.tmp = alloca i8, align 1
  store ptr %agg.result, ptr %result.ptr, align 8
  store ptr %this, ptr %this.addr, align 8, !tbaa !3
  %this1 = load ptr, ptr %this.addr, align 8
  call void @llvm.lifetime.start.p0(i64 1, ptr %ref.tmp) #14
  store i8 1, ptr %ref.tmp, align 1, !tbaa !39
  %exerciseTimes_ = getelementptr inbounds nuw %"class.QuantLib::SwapBasisSystem", ptr %this1, i32 0, i32 2
  %call = call noundef i64 @_ZNKSt6vectorIdSaIdEE4sizeEv(ptr noundef nonnull align 8 dereferenceable(24) %exerciseTimes_) #14
  call void @_ZNSt8valarrayIbEC2ERKbm(ptr noundef nonnull align 8 dereferenceable(16) %agg.result, ptr noundef nonnull align 1 dereferenceable(1) %ref.tmp, i64 noundef %call)
  call void @llvm.lifetime.end.p0(i64 1, ptr %ref.tmp) #14
  ret void
}