; Function Attrs: mustprogress uwtable
define void @_ZNK8QuantLib15SwapBasisSystem14isExerciseTimeEv(ptr dead_on_unwind noalias nocapture writable writeonly sret(%"class.std::valarray") align 8 %agg.result, ptr nocapture noundef nonnull readonly align 8 dereferenceable(216) %this) unnamed_addr #0 align 2 {
entry:
  %exerciseTimes_ = getelementptr inbounds nuw i8, ptr %this, i64 32
  %_M_finish.i = getelementptr inbounds nuw i8, ptr %this, i64 40
  %0 = load ptr, ptr %_M_finish.i, align 8, !tbaa !6
  %1 = load ptr, ptr %exerciseTimes_, align 8, !tbaa !10
  %sub.ptr.lhs.cast.i = ptrtoint ptr %0 to i64
  %sub.ptr.rhs.cast.i = ptrtoint ptr %1 to i64
  %sub.ptr.sub.i = sub i64 %sub.ptr.lhs.cast.i, %sub.ptr.rhs.cast.i
  %sub.ptr.div.i = ashr exact i64 %sub.ptr.sub.i, 3
  store i64 %sub.ptr.div.i, ptr %agg.result, align 8, !tbaa !43
  %_M_data.i = getelementptr inbounds nuw i8, ptr %agg.result, i64 8
  %call.i.i = tail call noalias noundef nonnull ptr @_Znwm(i64 noundef %sub.ptr.div.i) #20
  store ptr %call.i.i, ptr %_M_data.i, align 8, !tbaa !45
  %cmp.not2.i.i.i = icmp eq ptr %0, %1
  br i1 %cmp.not2.i.i.i, label %_ZNSt8valarrayIbEC2ERKbm.exit, label %while.body.preheader.i.i.i

while.body.preheader.i.i.i:                       ; preds = %entry
  tail call void @llvm.memset.p0.i64(ptr nonnull align 1 %call.i.i, i8 1, i64 %sub.ptr.div.i, i1 false), !tbaa !46
  br label %_ZNSt8valarrayIbEC2ERKbm.exit

_ZNSt8valarrayIbEC2ERKbm.exit:                    ; preds = %entry, %while.body.preheader.i.i.i
  ret void
}